target datalayout = "e-m:e-p270:32:32-p271:32:32-p272:64:64-i64:64-i128:128-f80:128-n8:16:32:64-S128"
target triple = "x86_64-pc-linux-gnu"

@.str.11 = private unnamed_addr constant [65 x i8] c"Possible integer overflow in memory allocation (%zu * %zu + %zu)\00", align 1

; Function Attrs: nounwind allocsize(0) uwtable
define noalias ptr @__zend_malloc(i64 noundef %0) #7 {
  %2 = alloca i64, align 8
  %3 = alloca ptr, align 8
  store i64 %0, ptr %2, align 8
  %4 = load i64, ptr %2, align 8
  %5 = call noalias ptr @malloc(i64 noundef %4) #22
  store ptr %5, ptr %3, align 8
  %6 = load ptr, ptr %3, align 8
  %7 = icmp ne ptr %6, null
  br i1 %7, label %12, label %8

8:                                                ; preds = %1
  %9 = load i64, ptr %2, align 8
  %10 = icmp ne i64 %9, 0
  %11 = xor i1 %10, true
  br label %12

12:                                               ; preds = %8, %1
  %13 = phi i1 [ true, %1 ], [ %11, %8 ]
  %14 = xor i1 %13, true
  %15 = xor i1 %14, true
  %16 = zext i1 %15 to i32
  %17 = sext i32 %16 to i64
  %18 = icmp ne i64 %17, 0
  br i1 %18, label %19, label %21

19:                                               ; preds = %12
  %20 = load ptr, ptr %3, align 8
  ret ptr %20

21:                                               ; preds = %12
  call void @zend_out_of_memory() #19
  unreachable
}

; Function Attrs: nounwind uwtable
define noalias ptr @_safe_malloc(i64 noundef %0, i64 noundef %1, i64 noundef %2) #0 {
  %4 = alloca i64, align 8
  %5 = alloca i64, align 8
  %6 = alloca i64, align 8
  %7 = alloca i64, align 8
  %8 = alloca ptr, align 8
  %9 = alloca i64, align 8
  %10 = alloca i64, align 8
  %11 = alloca i64, align 8
  %12 = alloca i64, align 8
  %13 = alloca i64, align 8
  %14 = alloca i8, align 1
  %15 = alloca i64, align 8
  %16 = alloca i64, align 8
  %17 = alloca i64, align 8
  %18 = alloca i64, align 8
  store i64 %0, ptr %16, align 8
  store i64 %1, ptr %17, align 8
  store i64 %2, ptr %18, align 8
  %19 = load i64, ptr %16, align 8
  %20 = load i64, ptr %17, align 8
  %21 = load i64, ptr %18, align 8
  store i64 %19, ptr %11, align 8
  store i64 %20, ptr %12, align 8
  store i64 %21, ptr %13, align 8
  %22 = load i64, ptr %11, align 8
  %23 = load i64, ptr %12, align 8
  %24 = load i64, ptr %13, align 8
  store i64 %22, ptr %5, align 8
  store i64 %23, ptr %6, align 8
  store i64 %24, ptr %7, align 8
  store ptr %14, ptr %8, align 8
  %25 = load i64, ptr %5, align 8
  store i64 %25, ptr %9, align 8
  store i64 0, ptr %10, align 8
  %26 = load i64, ptr %7, align 8
  %27 = icmp eq i64 %26, 0
  %28 = zext i1 %27 to i32
  %29 = call i1 @llvm.is.constant.i32(i32 %28)
  br i1 %29, label %30, label %33

30:                                               ; preds = %3
  %31 = load i64, ptr %7, align 8
  %32 = icmp eq i64 %31, 0
  br i1 %32, label %34, label %40

33:                                               ; preds = %3
  br label %40

34:                                               ; preds = %30
  %35 = load i64, ptr %9, align 8
  %36 = load i64, ptr %6, align 8
  %37 = call { i64, i64 } asm "mulq $3\0A\09adc $$0,$1", "=&{ax},=&{dx},%0,rm,~{dirflag},~{fpsr},~{flags}"(i64 %35, i64 %36) #24, !srcloc !4
  %38 = extractvalue { i64, i64 } %37, 0
  %39 = extractvalue { i64, i64 } %37, 1
  store i64 %38, ptr %9, align 8
  store i64 %39, ptr %10, align 8
  br label %47

40:                                               ; preds = %33, %30
  %41 = load i64, ptr %9, align 8
  %42 = load i64, ptr %6, align 8
  %43 = load i64, ptr %7, align 8
  %44 = call { i64, i64 } asm "mulq $3\0A\09add $4,$0\0A\09adc $$0,$1", "=&{ax},=&{dx},%0,rm,rm,~{dirflag},~{fpsr},~{flags}"(i64 %41, i64 %42, i64 %43) #24, !srcloc !5
  %45 = extractvalue { i64, i64 } %44, 0
  %46 = extractvalue { i64, i64 } %44, 1
  store i64 %45, ptr %9, align 8
  store i64 %46, ptr %10, align 8
  br label %47

47:                                               ; preds = %40, %34
  %48 = load i64, ptr %10, align 8
  %49 = icmp ne i64 %48, 0
  br i1 %49, label %50, label %52

50:                                               ; preds = %47
  %51 = load ptr, ptr %8, align 8
  store i8 1, ptr %51, align 1
  store i64 0, ptr %4, align 8
  br label %55

52:                                               ; preds = %47
  %53 = load ptr, ptr %8, align 8
  store i8 0, ptr %53, align 1
  %54 = load i64, ptr %9, align 8
  store i64 %54, ptr %4, align 8
  br label %55

55:                                               ; preds = %52, %50
  %56 = load i64, ptr %4, align 8
  store i64 %56, ptr %15, align 8
  %57 = load i8, ptr %14, align 1
  %58 = trunc i8 %57 to i1
  br i1 %58, label %59, label %63

59:                                               ; preds = %55
  %60 = load i64, ptr %11, align 8
  %61 = load i64, ptr %12, align 8
  %62 = load i64, ptr %13, align 8
  call void (i32, ptr, ...) @zend_error_noreturn(i32 noundef 1, ptr noundef @.str.11, i64 noundef %60, i64 noundef %61, i64 noundef %62) #21
  unreachable

63:                                               ; preds = %55
  %64 = load i64, ptr %15, align 8
  %65 = call noalias ptr @__zend_malloc(i64 noundef %64) #25
  ret ptr %65
}