; Function Attrs: nounwind uwtable
define noalias noundef ptr @_safe_malloc(i64 noundef %0, i64 noundef %1, i64 noundef %2) local_unnamed_addr #0 {
  %4 = tail call { i64, i64 } asm "mulq $3\0A\09add $4,$0\0A\09adc $$0,$1", "=&{ax},=&{dx},%0,rm,rm,~{dirflag},~{fpsr},~{flags}"(i64 %0, i64 %1, i64 %2) #41, !srcloc !5
  %.024 = extractvalue { i64, i64 } %4, 1
  %.not.not = icmp eq i64 %.024, 0
  br i1 %.not.not, label %6, label %5

5:                                                ; preds = %3
  tail call void (i32, ptr, ...) @zend_error_noreturn(i32 noundef 1, ptr noundef nonnull @.str.11, i64 noundef %0, i64 noundef %1, i64 noundef %2) #38
  unreachable

6:                                                ; preds = %3
  %.023 = extractvalue { i64, i64 } %4, 0
  %7 = tail call noalias ptr @malloc(i64 noundef %.023) #39
  %8 = icmp ne ptr %7, null
  %.not.i = icmp eq i64 %.023, 0
  %9 = or i1 %.not.i, %8
  br i1 %9, label %__zend_malloc.exit, label %10

10:                                               ; preds = %6
  tail call fastcc void @zend_out_of_memory() #34
  unreachable

__zend_malloc.exit:                               ; preds = %6
  ret ptr %7
}